; Function Attrs: nofree norecurse nosync nounwind memory(argmem: readwrite) uwtable
define void @gf_serialize(ptr noundef writeonly captures(none) %0, ptr noundef readonly captures(none) %1, i32 noundef %2) local_unnamed_addr #0 {
  %4 = alloca [1 x %struct.gf_s], align 16
  call void @llvm.lifetime.start.p0(i64 64, ptr nonnull %4) #6
  call void @llvm.memcpy.p0.p0.i64(ptr noundef nonnull align 16 dereferenceable(64) %4, ptr noundef nonnull align 16 dereferenceable(64) %1, i64 64, i1 false), !tbaa.struct !3
  %5 = getelementptr inbounds nuw i8, ptr %4, i64 56
  %6 = load i64, ptr %5, align 8, !tbaa !7
  %7 = lshr i64 %6, 56
  %8 = getelementptr inbounds nuw i8, ptr %4, i64 32
  %9 = load i64, ptr %8, align 16, !tbaa !7
  %10 = add i64 %9, %7
  store i64 %10, ptr %8, align 16, !tbaa !7
  br label %11

11:                                               ; preds = %11, %3
  %12 = phi i64 [ %6, %3 ], [ %16, %11 ]
  %indvars.iv.i = phi i64 [ 7, %3 ], [ %indvars.iv.next.i, %11 ]
  %13 = getelementptr inbounds nuw [8 x i64], ptr %4, i64 0, i64 %indvars.iv.i
  %14 = and i64 %12, 72057594037927935
  %indvars.iv.next.i = add nsw i64 %indvars.iv.i, -1
  %15 = getelementptr inbounds nuw [8 x i64], ptr %4, i64 0, i64 %indvars.iv.next.i
  %16 = load i64, ptr %15, align 8, !tbaa !7
  %17 = lshr i64 %16, 56
  %18 = add nuw nsw i64 %17, %14
  store i64 %18, ptr %13, align 8, !tbaa !7
  %.not.i.i = icmp eq i64 %indvars.iv.next.i, 0
  br i1 %.not.i.i, label %gf_weak_reduce.exit.i, label %11, !llvm.loop !9

gf_weak_reduce.exit.i:                            ; preds = %11
  %19 = load i64, ptr %4, align 16, !tbaa !7
  %20 = and i64 %19, 72057594037927935
  %21 = add nuw nsw i64 %20, %7
  store i64 %21, ptr %4, align 16, !tbaa !7
  br label %22

22:                                               ; preds = %22, %gf_weak_reduce.exit.i
  %indvars.iv32.i = phi i64 [ 0, %gf_weak_reduce.exit.i ], [ %indvars.iv.next33.i, %22 ]
  %.02327.i = phi i128 [ 0, %gf_weak_reduce.exit.i ], [ %33, %22 ]
  %23 = getelementptr inbounds nuw [8 x i64], ptr %4, i64 0, i64 %indvars.iv32.i
  %24 = load i64, ptr %23, align 8, !tbaa !7
  %25 = zext i64 %24 to i128
  %26 = add nsw i128 %.02327.i, %25
  %27 = getelementptr inbounds nuw [8 x i64], ptr @MODULUS, i64 0, i64 %indvars.iv32.i
  %28 = load i64, ptr %27, align 8, !tbaa !7
  %29 = zext i64 %28 to i128
  %30 = sub nsw i128 %26, %29
  %31 = trunc i128 %30 to i64
  %32 = and i64 %31, 72057594037927935
  store i64 %32, ptr %23, align 8, !tbaa !7
  %33 = ashr i128 %30, 56
  %indvars.iv.next33.i = add nuw nsw i64 %indvars.iv32.i, 1
  %exitcond.not.i = icmp eq i64 %indvars.iv.next33.i, 8
  br i1 %exitcond.not.i, label %34, label %22, !llvm.loop !11

34:                                               ; preds = %22
  %35 = trunc nsw i128 %33 to i64
  br label %36

36:                                               ; preds = %36, %34
  %indvars.iv35.i = phi i64 [ 0, %34 ], [ %indvars.iv.next36.i, %36 ]
  %.02229.i = phi i128 [ 0, %34 ], [ %48, %36 ]
  %37 = getelementptr inbounds nuw [8 x i64], ptr %4, i64 0, i64 %indvars.iv35.i
  %38 = load i64, ptr %37, align 8, !tbaa !7
  %39 = zext i64 %38 to i128
  %40 = add nuw nsw i128 %.02229.i, %39
  %41 = getelementptr inbounds nuw [8 x i64], ptr @MODULUS, i64 0, i64 %indvars.iv35.i
  %42 = load i64, ptr %41, align 8, !tbaa !7
  %43 = and i64 %42, %35
  %44 = zext i64 %43 to i128
  %45 = add nuw nsw i128 %40, %44
  %46 = trunc i128 %45 to i64
  %47 = and i64 %46, 72057594037927935
  store i64 %47, ptr %37, align 8, !tbaa !7
  %48 = lshr i128 %45, 56
  %indvars.iv.next36.i = add nuw nsw i64 %indvars.iv35.i, 1
  %exitcond38.not.i = icmp eq i64 %indvars.iv.next36.i, 8
  br i1 %exitcond38.not.i, label %gf_strong_reduce.exit.preheader, label %36, !llvm.loop !12

gf_strong_reduce.exit.preheader:                  ; preds = %36, %gf_strong_reduce.exit
  %indvars.iv = phi i64 [ %indvars.iv.next, %gf_strong_reduce.exit ], [ 0, %36 ]
  %.01826 = phi i128 [ %64, %gf_strong_reduce.exit ], [ 0, %36 ]
  %.01925 = phi i32 [ %63, %gf_strong_reduce.exit ], [ 0, %36 ]
  %.02124 = phi i32 [ %.122, %gf_strong_reduce.exit ], [ 0, %36 ]
  %49 = icmp ult i32 %.01925, 8
  %50 = icmp ult i32 %.02124, 8
  %or.cond = select i1 %49, i1 %50, i1 false
  br i1 %or.cond, label %51, label %gf_strong_reduce.exit

51:                                               ; preds = %gf_strong_reduce.exit.preheader
  %52 = zext nneg i32 %.02124 to i64
  %53 = getelementptr inbounds nuw [8 x i64], ptr %4, i64 0, i64 %52
  %54 = load i64, ptr %53, align 8, !tbaa !7
  %55 = zext i64 %54 to i128
  %56 = zext nneg i32 %.01925 to i128
  %57 = shl nuw nsw i128 %55, %56
  %58 = or i128 %57, %.01826
  %59 = or disjoint i32 %.01925, 56
  %60 = add nuw nsw i32 %.02124, 1
  br label %gf_strong_reduce.exit

gf_strong_reduce.exit:                            ; preds = %51, %gf_strong_reduce.exit.preheader
  %.122 = phi i32 [ %60, %51 ], [ %.02124, %gf_strong_reduce.exit.preheader ]
  %.120 = phi i32 [ %59, %51 ], [ %.01925, %gf_strong_reduce.exit.preheader ]
  %.1 = phi i128 [ %58, %51 ], [ %.01826, %gf_strong_reduce.exit.preheader ]
  %61 = trunc i128 %.1 to i8
  %62 = getelementptr inbounds nuw i8, ptr %0, i64 %indvars.iv
  store i8 %61, ptr %62, align 1, !tbaa !4
  %63 = add i32 %.120, -8
  %64 = lshr i128 %.1, 8
  %indvars.iv.next = add nuw nsw i64 %indvars.iv, 1
  %exitcond.not = icmp eq i64 %indvars.iv.next, 56
  br i1 %exitcond.not, label %65, label %gf_strong_reduce.exit.preheader, !llvm.loop !13

65:                                               ; preds = %gf_strong_reduce.exit
  call void @llvm.lifetime.end.p0(i64 64, ptr nonnull %4) #6
  ret void
}